target datalayout = "e-m:e-p270:32:32-p271:32:32-p272:64:64-i64:64-i128:128-f80:128-n8:16:32:64-S128"
target triple = "x86_64-pc-linux-gnu"

; Function Attrs: inlinehint mustprogress nounwind uwtable
define internal noundef i32 @_ZN24__llvm_libc_common_utils8internalL15b36_char_to_intEi(i32 noundef %0) #5 {
  %2 = alloca i32, align 4
  %3 = alloca i32, align 4
  store i32 %0, ptr %3, align 4, !tbaa !21
  %4 = load i32, ptr %3, align 4, !tbaa !21
  switch i32 %4, label %41 [
    i32 48, label %5
    i32 49, label %6
    i32 50, label %7
    i32 51, label %8
    i32 52, label %9
    i32 53, label %10
    i32 54, label %11
    i32 55, label %12
    i32 56, label %13
    i32 57, label %14
    i32 97, label %15
    i32 65, label %15
    i32 98, label %16
    i32 66, label %16
    i32 99, label %17
    i32 67, label %17
    i32 100, label %18
    i32 68, label %18
    i32 101, label %19
    i32 69, label %19
    i32 102, label %20
    i32 70, label %20
    i32 103, label %21
    i32 71, label %21
    i32 104, label %22
    i32 72, label %22
    i32 105, label %23
    i32 73, label %23
    i32 106, label %24
    i32 74, label %24
    i32 107, label %25
    i32 75, label %25
    i32 108, label %26
    i32 76, label %26
    i32 109, label %27
    i32 77, label %27
    i32 110, label %28
    i32 78, label %28
    i32 111, label %29
    i32 79, label %29
    i32 112, label %30
    i32 80, label %30
    i32 113, label %31
    i32 81, label %31
    i32 114, label %32
    i32 82, label %32
    i32 115, label %33
    i32 83, label %33
    i32 116, label %34
    i32 84, label %34
    i32 117, label %35
    i32 85, label %35
    i32 118, label %36
    i32 86, label %36
    i32 119, label %37
    i32 87, label %37
    i32 120, label %38
    i32 88, label %38
    i32 121, label %39
    i32 89, label %39
    i32 122, label %40
    i32 90, label %40
  ]

5:                                                ; preds = %1
  store i32 0, ptr %2, align 4
  br label %42

6:                                                ; preds = %1
  store i32 1, ptr %2, align 4
  br label %42

7:                                                ; preds = %1
  store i32 2, ptr %2, align 4
  br label %42

8:                                                ; preds = %1
  store i32 3, ptr %2, align 4
  br label %42

9:                                                ; preds = %1
  store i32 4, ptr %2, align 4
  br label %42

10:                                               ; preds = %1
  store i32 5, ptr %2, align 4
  br label %42

11:                                               ; preds = %1
  store i32 6, ptr %2, align 4
  br label %42

12:                                               ; preds = %1
  store i32 7, ptr %2, align 4
  br label %42

13:                                               ; preds = %1
  store i32 8, ptr %2, align 4
  br label %42

14:                                               ; preds = %1
  store i32 9, ptr %2, align 4
  br label %42

15:                                               ; preds = %1, %1
  store i32 10, ptr %2, align 4
  br label %42

16:                                               ; preds = %1, %1
  store i32 11, ptr %2, align 4
  br label %42

17:                                               ; preds = %1, %1
  store i32 12, ptr %2, align 4
  br label %42

18:                                               ; preds = %1, %1
  store i32 13, ptr %2, align 4
  br label %42

19:                                               ; preds = %1, %1
  store i32 14, ptr %2, align 4
  br label %42

20:                                               ; preds = %1, %1
  store i32 15, ptr %2, align 4
  br label %42

21:                                               ; preds = %1, %1
  store i32 16, ptr %2, align 4
  br label %42

22:                                               ; preds = %1, %1
  store i32 17, ptr %2, align 4
  br label %42

23:                                               ; preds = %1, %1
  store i32 18, ptr %2, align 4
  br label %42

24:                                               ; preds = %1, %1
  store i32 19, ptr %2, align 4
  br label %42

25:                                               ; preds = %1, %1
  store i32 20, ptr %2, align 4
  br label %42

26:                                               ; preds = %1, %1
  store i32 21, ptr %2, align 4
  br label %42

27:                                               ; preds = %1, %1
  store i32 22, ptr %2, align 4
  br label %42

28:                                               ; preds = %1, %1
  store i32 23, ptr %2, align 4
  br label %42

29:                                               ; preds = %1, %1
  store i32 24, ptr %2, align 4
  br label %42

30:                                               ; preds = %1, %1
  store i32 25, ptr %2, align 4
  br label %42

31:                                               ; preds = %1, %1
  store i32 26, ptr %2, align 4
  br label %42

32:                                               ; preds = %1, %1
  store i32 27, ptr %2, align 4
  br label %42

33:                                               ; preds = %1, %1
  store i32 28, ptr %2, align 4
  br label %42

34:                                               ; preds = %1, %1
  store i32 29, ptr %2, align 4
  br label %42

35:                                               ; preds = %1, %1
  store i32 30, ptr %2, align 4
  br label %42

36:                                               ; preds = %1, %1
  store i32 31, ptr %2, align 4
  br label %42

37:                                               ; preds = %1, %1
  store i32 32, ptr %2, align 4
  br label %42

38:                                               ; preds = %1, %1
  store i32 33, ptr %2, align 4
  br label %42

39:                                               ; preds = %1, %1
  store i32 34, ptr %2, align 4
  br label %42

40:                                               ; preds = %1, %1
  store i32 35, ptr %2, align 4
  br label %42

41:                                               ; preds = %1
  store i32 0, ptr %2, align 4
  br label %42

42:                                               ; preds = %41, %40, %39, %38, %37, %36, %35, %34, %33, %32, %31, %30, %29, %28, %27, %26, %25, %24, %23, %22, %21, %20, %19, %18, %17, %16, %15, %14, %13, %12, %11, %10, %9, %8, %7, %6, %5
  %43 = load i32, ptr %2, align 4
  ret i32 %43
}