; Function Attrs: inlinehint mustprogress nofree norecurse nosync nounwind willreturn memory(none) uwtable
define internal fastcc noundef range(i32 0, 36) i32 @_ZN24__llvm_libc_common_utils8internalL15b36_char_to_intEi(i32 noundef range(i32 -128, 128) %0) unnamed_addr #9 {
  %switch.tableidx = add nsw i32 %0, -49
  %2 = icmp ult i32 %switch.tableidx, 74
  br i1 %2, label %switch.lookup, label %4

switch.lookup:                                    ; preds = %1
  %3 = zext nneg i32 %switch.tableidx to i64
  %switch.gep = getelementptr inbounds nuw [74 x i32], ptr @switch.table._ZN24__llvm_libc_common_utils8internalL15b36_char_to_intEi, i64 0, i64 %3
  %switch.load = load i32, ptr %switch.gep, align 4
  br label %4

4:                                                ; preds = %1, %switch.lookup
  %.0 = phi i32 [ %switch.load, %switch.lookup ], [ 0, %1 ]
  ret i32 %.0
}